#include <math.h>
#include <stdio.h>
#include <stdlib.h>
#include <string.h>

int main()
{
    int x[16],i,j,k,a;
    while(1){
    	for(i=0;i<16;i++)x[i]=0;
    	for(i=0;scanf("%d",&x[i]),~x[i];i++)if(!x[i])break;
    	if(x[0]==-1)break; else 
			for(a=0,j=1;j<i;j++)
			for(k=0;k<j;k++)
                if(x[k]==2*x[j]||x[j]==2*x[k])a++;
        printf("%d\n",a);
	}
	return 0;
}